target datalayout = "e-m:e-p270:32:32-p271:32:32-p272:64:64-i64:64-i128:128-f80:128-n8:16:32:64-S128"
target triple = "x86_64-pc-linux-gnu"

%struct.RestorationUnitInfo = type { i32, [12 x i8], %struct.WienerInfo, %struct.SgrprojInfo, [4 x i8] }
%struct.WienerInfo = type { [8 x i16], [8 x i16] }
%struct.SgrprojInfo = type { i32, [2 x i32] }
%struct.ConvolveParams = type { i32, ptr, i32, i32, i32, i32, i32, i32, i32, i32 }

; Function Attrs: nounwind uwtable
define internal void @get_conv_params_wiener(ptr dead_on_unwind noalias writable sret(%struct.ConvolveParams) align 8 %0, i32 noundef %1) #0 {
  %3 = alloca i32, align 4
  %4 = alloca i32, align 4
  store i32 %1, ptr %3, align 4
  %5 = getelementptr inbounds nuw %struct.ConvolveParams, ptr %0, i32 0, i32 0
  store i32 0, ptr %5, align 8
  %6 = getelementptr inbounds nuw %struct.ConvolveParams, ptr %0, i32 0, i32 6
  store i32 0, ptr %6, align 8
  %7 = getelementptr inbounds nuw %struct.ConvolveParams, ptr %0, i32 0, i32 3
  store i32 3, ptr %7, align 4
  %8 = getelementptr inbounds nuw %struct.ConvolveParams, ptr %0, i32 0, i32 3
  %9 = load i32, ptr %8, align 4
  %10 = sub nsw i32 14, %9
  %11 = getelementptr inbounds nuw %struct.ConvolveParams, ptr %0, i32 0, i32 4
  store i32 %10, ptr %11, align 8
  %12 = load i32, ptr %3, align 4
  %13 = add nsw i32 %12, 7
  %14 = getelementptr inbounds nuw %struct.ConvolveParams, ptr %0, i32 0, i32 3
  %15 = load i32, ptr %14, align 4
  %16 = sub nsw i32 %13, %15
  %17 = add nsw i32 %16, 2
  store i32 %17, ptr %4, align 4
  %18 = load i32, ptr %4, align 4
  %19 = icmp sgt i32 %18, 16
  br i1 %19, label %20, label %31

20:                                               ; preds = %2
  %21 = load i32, ptr %4, align 4
  %22 = sub nsw i32 %21, 16
  %23 = getelementptr inbounds nuw %struct.ConvolveParams, ptr %0, i32 0, i32 3
  %24 = load i32, ptr %23, align 4
  %25 = add nsw i32 %24, %22
  store i32 %25, ptr %23, align 4
  %26 = load i32, ptr %4, align 4
  %27 = sub nsw i32 %26, 16
  %28 = getelementptr inbounds nuw %struct.ConvolveParams, ptr %0, i32 0, i32 4
  %29 = load i32, ptr %28, align 8
  %30 = sub nsw i32 %29, %27
  store i32 %30, ptr %28, align 8
  br label %31

31:                                               ; preds = %20, %2
  %32 = getelementptr inbounds nuw %struct.ConvolveParams, ptr %0, i32 0, i32 1
  store ptr null, ptr %32, align 8
  %33 = getelementptr inbounds nuw %struct.ConvolveParams, ptr %0, i32 0, i32 2
  store i32 0, ptr %33, align 8
  %34 = getelementptr inbounds nuw %struct.ConvolveParams, ptr %0, i32 0, i32 5
  store i32 0, ptr %34, align 4
  ret void
}

; Function Attrs: nounwind uwtable
define internal void @wiener_filter_stripe(ptr noundef %0, i32 noundef %1, i32 noundef %2, i32 noundef %3, ptr noundef %4, i32 noundef %5, ptr noundef %6, i32 noundef %7, ptr noundef %8, i32 noundef %9) #0 {
  %11 = alloca ptr, align 8
  %12 = alloca i32, align 4
  %13 = alloca i32, align 4
  %14 = alloca i32, align 4
  %15 = alloca ptr, align 8
  %16 = alloca i32, align 4
  %17 = alloca ptr, align 8
  %18 = alloca i32, align 4
  %19 = alloca ptr, align 8
  %20 = alloca i32, align 4
  %21 = alloca %struct.ConvolveParams, align 8
  %22 = alloca i32, align 4
  %23 = alloca i32, align 4
  %24 = alloca ptr, align 8
  %25 = alloca ptr, align 8
  store ptr %0, ptr %11, align 8
  store i32 %1, ptr %12, align 4
  store i32 %2, ptr %13, align 4
  store i32 %3, ptr %14, align 4
  store ptr %4, ptr %15, align 8
  store i32 %5, ptr %16, align 4
  store ptr %6, ptr %17, align 8
  store i32 %7, ptr %18, align 4
  store ptr %8, ptr %19, align 8
  store i32 %9, ptr %20, align 4
  call void @get_conv_params_wiener(ptr dead_on_unwind writable sret(%struct.ConvolveParams) align 8 %21, i32 noundef 8)
  store i32 0, ptr %22, align 4
  br label %26

26:                                               ; preds = %72, %10
  %27 = load i32, ptr %22, align 4
  %28 = load i32, ptr %12, align 4
  %29 = icmp slt i32 %27, %28
  br i1 %29, label %30, label %76

30:                                               ; preds = %26
  %31 = load i32, ptr %14, align 4
  %32 = load i32, ptr %12, align 4
  %33 = load i32, ptr %22, align 4
  %34 = sub nsw i32 %32, %33
  %35 = add nsw i32 %34, 15
  %36 = and i32 %35, -16
  %37 = icmp slt i32 %31, %36
  br i1 %37, label %38, label %40

38:                                               ; preds = %30
  %39 = load i32, ptr %14, align 4
  br label %46

40:                                               ; preds = %30
  %41 = load i32, ptr %12, align 4
  %42 = load i32, ptr %22, align 4
  %43 = sub nsw i32 %41, %42
  %44 = add nsw i32 %43, 15
  %45 = and i32 %44, -16
  br label %46

46:                                               ; preds = %40, %38
  %47 = phi i32 [ %39, %38 ], [ %45, %40 ]
  store i32 %47, ptr %23, align 4
  %48 = load ptr, ptr %15, align 8
  %49 = load i32, ptr %22, align 4
  %50 = sext i32 %49 to i64
  %51 = getelementptr inbounds i8, ptr %48, i64 %50
  store ptr %51, ptr %24, align 8
  %52 = load ptr, ptr %17, align 8
  %53 = load i32, ptr %22, align 4
  %54 = sext i32 %53 to i64
  %55 = getelementptr inbounds i8, ptr %52, i64 %54
  store ptr %55, ptr %25, align 8
  %56 = load ptr, ptr %24, align 8
  %57 = load i32, ptr %16, align 4
  %58 = sext i32 %57 to i64
  %59 = load ptr, ptr %25, align 8
  %60 = load i32, ptr %18, align 4
  %61 = sext i32 %60 to i64
  %62 = load ptr, ptr %11, align 8
  %63 = getelementptr inbounds nuw %struct.RestorationUnitInfo, ptr %62, i32 0, i32 2
  %64 = getelementptr inbounds nuw %struct.WienerInfo, ptr %63, i32 0, i32 1
  %65 = getelementptr inbounds [8 x i16], ptr %64, i64 0, i64 0
  %66 = load ptr, ptr %11, align 8
  %67 = getelementptr inbounds nuw %struct.RestorationUnitInfo, ptr %66, i32 0, i32 2
  %68 = getelementptr inbounds nuw %struct.WienerInfo, ptr %67, i32 0, i32 0
  %69 = getelementptr inbounds [8 x i16], ptr %68, i64 0, i64 0
  %70 = load i32, ptr %23, align 4
  %71 = load i32, ptr %13, align 4
  call void @av1_wiener_convolve_add_src_c(ptr noundef %56, i64 noundef %58, ptr noundef %59, i64 noundef %61, ptr noundef %65, i32 noundef 16, ptr noundef %69, i32 noundef 16, i32 noundef %70, i32 noundef %71, ptr noundef %21)
  br label %72

72:                                               ; preds = %46
  %73 = load i32, ptr %14, align 4
  %74 = load i32, ptr %22, align 4
  %75 = add nsw i32 %74, %73
  store i32 %75, ptr %22, align 4
  br label %26, !llvm.loop !51

76:                                               ; preds = %26
  ret void
}