; Function Attrs: nounwind uwtable
define internal void @wiener_filter_stripe(ptr noundef %0, i32 noundef %1, i32 noundef %2, i32 noundef %3, ptr noundef %4, i32 noundef %5, ptr noundef %6, i32 noundef %7, ptr readnone captures(none) %8, i32 %9) #2 {
  %11 = alloca %struct.ConvolveParams, align 8
  store i32 0, ptr %11, align 8, !alias.scope !53
  %12 = getelementptr inbounds nuw i8, ptr %11, i64 32
  store i32 0, ptr %12, align 8, !alias.scope !53
  %13 = getelementptr inbounds nuw i8, ptr %11, i64 20
  store i32 3, ptr %13, align 4, !alias.scope !53
  %14 = getelementptr inbounds nuw i8, ptr %11, i64 24
  store i32 11, ptr %14, align 8, !alias.scope !53
  %15 = getelementptr inbounds nuw i8, ptr %11, i64 8
  store ptr null, ptr %15, align 8, !alias.scope !53
  %16 = getelementptr inbounds nuw i8, ptr %11, i64 16
  store i32 0, ptr %16, align 8, !alias.scope !53
  %17 = getelementptr inbounds nuw i8, ptr %11, i64 28
  store i32 0, ptr %17, align 4, !alias.scope !53
  %18 = icmp sgt i32 %1, 0
  br i1 %18, label %.lr.ph, label %._crit_edge

.lr.ph:                                           ; preds = %10
  %19 = add nuw i32 %1, 15
  %20 = sext i32 %5 to i64
  %21 = sext i32 %7 to i64
  %22 = getelementptr inbounds nuw i8, ptr %0, i64 16
  %23 = getelementptr inbounds nuw i8, ptr %0, i64 32
  %24 = sext i32 %3 to i64
  %25 = zext nneg i32 %1 to i64
  br label %26

26:                                               ; preds = %.lr.ph, %26
  %indvars.iv = phi i64 [ 0, %.lr.ph ], [ %indvars.iv.next, %26 ]
  %27 = trunc nsw i64 %indvars.iv to i32
  %28 = sub i32 %19, %27
  %29 = and i32 %28, -16
  %. = call i32 @llvm.smin.i32(i32 %3, i32 %29)
  %30 = getelementptr inbounds i8, ptr %4, i64 %indvars.iv
  %31 = getelementptr inbounds i8, ptr %6, i64 %indvars.iv
  call void @av1_wiener_convolve_add_src_c(ptr noundef %30, i64 noundef %20, ptr noundef %31, i64 noundef %21, ptr noundef nonnull %23, i32 noundef 16, ptr noundef nonnull %22, i32 noundef 16, i32 noundef %., i32 noundef %2, ptr noundef nonnull %11) #12
  %indvars.iv.next = add nsw i64 %indvars.iv, %24
  %32 = icmp slt i64 %indvars.iv.next, %25
  br i1 %32, label %26, label %._crit_edge, !llvm.loop !56

._crit_edge:                                      ; preds = %26, %10
  ret void
}